Certificate:
    Data:
        Version: 3 (0x2)
        Serial Number:
            b1:0a:e3:9a:d3:cf:1f:f4:5b:86:ec:61:b8:55:b1:30
    Signature Algorithm: sha256WithRSAEncryption
        Issuer: CN=WSG RNWF Root CA
        Validity
            Not Before: Jun 22 16:41:24 2023 GMT
            Not After : Jun 19 16:41:24 2033 GMT
        Subject: CN=WSG RNWF Subordinate CA
        Subject Public Key Info:
            Public Key Algorithm: rsaEncryption
                Public-Key: (2048 bit)
                Modulus:
                    00:e9:e2:6c:c3:d6:ac:6b:03:a3:43:97:0e:32:8a:
                    f8:67:bc:8b:16:e1:af:93:56:40:79:40:df:ba:7c:
                    28:d1:cb:c6:de:b7:59:1b:89:ef:76:43:58:80:50:
                    f9:54:0f:d8:09:7d:63:ba:4e:d9:d8:c8:55:e1:8a:
                    f9:22:77:be:5d:9a:8a:52:3b:4c:03:29:94:29:d2:
                    53:38:e9:06:bd:c2:9e:a2:64:a2:56:77:da:88:1f:
                    e9:26:12:75:6a:cb:9a:e7:25:67:ee:1e:a2:9f:36:
                    86:1e:5e:9c:45:f8:2a:71:f4:0c:73:f5:99:81:03:
                    ad:1f:fb:08:61:e6:bf:46:68:f5:cf:05:6e:c7:90:
                    e1:5b:ce:4d:3b:a2:c3:15:7f:3e:88:4d:01:f5:db:
                    92:a1:97:5b:a5:af:2d:a4:0f:e9:ff:64:25:2c:75:
                    81:df:3e:e5:20:c3:0d:05:b6:31:9e:28:6a:8c:d1:
                    2f:68:38:c1:79:44:98:3b:ca:90:b5:7b:94:09:7a:
                    e7:15:cd:72:7d:fb:66:31:a3:f4:f7:09:07:f4:cd:
                    4f:66:9d:df:88:d1:87:52:b6:2b:71:ef:08:0f:a8:
                    a4:2b:8a:fe:79:1d:28:d0:56:70:fc:db:9b:8f:e1:
                    e5:91:da:79:44:9b:b7:2f:20:85:44:d6:28:a4:a8:
                    d3:bf
                Exponent: 65537 (0x10001)
        X509v3 extensions:
            X509v3 Authority Key Identifier: 
                keyid:58:12:2A:27:6C:0F:1E:EA:40:F5:78:80:63:2A:6C:2F:0D:63:22:67

            X509v3 Basic Constraints: critical
                CA:TRUE, pathlen:0
            X509v3 Extended Key Usage: 
                TLS Web Client Authentication, TLS Web Server Authentication
            X509v3 Key Usage: critical
                Certificate Sign, CRL Sign
            X509v3 Subject Key Identifier: 
                57:08:1F:67:FB:88:05:72:5F:82:27:9E:57:3A:5B:AD:00:6B:75:07
    Signature Algorithm: sha256WithRSAEncryption
         07:e9:56:71:39:d6:10:3a:34:dd:8d:5f:a6:90:3a:6b:aa:26:
         48:a4:d4:87:a9:56:82:be:92:e3:cd:94:36:5a:2c:10:87:d5:
         45:c0:83:9b:12:37:39:9b:69:a3:42:f1:0e:7c:85:1a:4b:19:
         1e:12:3d:a1:33:52:a0:4a:4a:94:c5:41:f0:72:13:0f:b9:ff:
         3b:6f:27:69:9b:f1:c8:e4:7d:93:53:48:13:bb:c0:1c:f1:70:
         9a:19:a7:a5:a1:33:1c:25:3f:f0:f0:64:a2:57:04:1f:69:86:
         a4:45:9f:7a:31:5a:dd:91:ef:66:00:32:11:a6:21:56:4d:c9:
         b8:8b:db:16:35:06:c3:d1:7d:7d:b4:47:8e:6b:fa:0e:f5:b6:
         fc:c7:44:fb:c5:4a:ee:d8:f4:1d:fc:af:d3:57:42:ec:bd:9b:
         ab:d9:45:e3:c6:8c:62:4a:91:0a:a6:2d:f6:fb:06:8e:5b:ad:
         85:4a:61:ae:e7:c0:fe:e4:10:9f:f5:46:1f:37:4d:1a:4b:5a:
         e0:43:79:49:52:fa:46:89:82:7d:98:7b:1a:7e:63:6d:6a:d6:
         e6:93:87:f7:9d:83:37:91:df:25:bf:37:3e:61:3a:ca:5e:ac:
         41:84:47:21:cf:e8:13:40:2a:ba:f2:b9:8f:da:7f:cd:80:e2:
         2c:95:24:7d
-----BEGIN CERTIFICATE-----
MIIDTzCCAjegAwIBAgIRALEK45rTzx/0W4bsYbhVsTAwDQYJKoZIhvcNAQELBQAw
GzEZMBcGA1UEAwwQV1NHIFJOV0YgUm9vdCBDQTAeFw0yMzA2MjIxNjQxMjRaFw0z
MzA2MTkxNjQxMjRaMCIxIDAeBgNVBAMMF1dTRyBSTldGIFN1Ym9yZGluYXRlIENB
MIIBIjANBgkqhkiG9w0BAQEFAAOCAQ8AMIIBCgKCAQEA6eJsw9asawOjQ5cOMor4
Z7yLFuGvk1ZAeUDfunwo0cvG3rdZG4nvdkNYgFD5VA/YCX1juk7Z2MhV4Yr5Ine+
XZqKUjtMAymUKdJTOOkGvcKeomSiVnfaiB/pJhJ1asua5yVn7h6inzaGHl6cRfgq
cfQMc/WZgQOtH/sIYea/Rmj1zwVux5DhW85NO6LDFX8+iE0B9duSoZdbpa8tpA/p
/2QlLHWB3z7lIMMNBbYxnihqjNEvaDjBeUSYO8qQtXuUCXrnFc1yfftmMaP09wkH
9M1PZp3fiNGHUrYrce8ID6ikK4r+eR0o0FZw/Nubj+Hlkdp5RJu3LyCFRNYopKjT
vwIDAQABo4GGMIGDMB8GA1UdIwQYMBaAFFgSKidsDx7qQPV4gGMqbC8NYyJnMBIG
A1UdEwEB/wQIMAYBAf8CAQAwHQYDVR0lBBYwFAYIKwYBBQUHAwIGCCsGAQUFBwMB
MA4GA1UdDwEB/wQEAwIBBjAdBgNVHQ4EFgQUVwgfZ/uIBXJfgieeVzpbrQBrdQcw
DQYJKoZIhvcNAQELBQADggEBAAfpVnE51hA6NN2NX6aQOmuqJkik1IepVoK+kuPN
lDZaLBCH1UXAg5sSNzmbaaNC8Q58hRpLGR4SPaEzUqBKSpTFQfByEw+5/ztvJ2mb
8cjkfZNTSBO7wBzxcJoZp6WhMxwlP/DwZKJXBB9phqRFn3oxWt2R72YAMhGmIVZN
ybiL2xY1BsPRfX20R45r+g71tvzHRPvFSu7Y9B38r9NXQuy9m6vZRePGjGJKkQqm
Lfb7Bo5brYVKYa7nwP7kEJ/1Rh83TRpLWuBDeUlS+kaJgn2Yexp+Y21q1uaTh/ed
gzeR3yW/Nz5hOsperEGERyHP6BNAKrryuY/af82A4iyVJH0=
-----END CERTIFICATE-----
