Certificate:
    Data:
        Version: 3 (0x2)
        Serial Number:
            5a:a8:07:42:30:4c:00:e5:58:83:5d:95:e0:05:bc:3f
    Signature Algorithm: sha256WithRSAEncryption
        Issuer: CN=Custom RootCA
        Validity
            Not Before: Sep 26 22:30:25 2023 GMT
            Not After : Sep 18 22:30:25 2053 GMT
        Subject: CN=Custom RootCA SubCA
        Subject Public Key Info:
            Public Key Algorithm: rsaEncryption
                RSA Public-Key: (2048 bit)
                Modulus:
                    00:b8:cd:fa:fa:a1:ba:b3:34:3a:3c:ff:74:94:59:
                    c5:ef:16:24:23:f1:d8:5b:4a:33:6b:c8:d2:c4:4c:
                    3e:86:e3:e5:7b:cb:8d:df:15:16:f7:96:61:a7:ec:
                    53:fb:c1:42:20:6a:9b:17:d2:5b:4b:6e:9f:ab:45:
                    de:63:f6:60:ca:09:00:7e:86:f9:65:e4:de:89:49:
                    68:d7:72:41:88:e0:9a:b4:f3:48:d9:d1:a5:05:14:
                    9f:02:94:92:26:6e:0d:28:7d:3d:fc:5b:d8:b8:27:
                    7e:ab:c5:c3:30:f5:19:f5:c7:fb:06:af:73:c0:ee:
                    38:41:76:7d:18:8d:8d:20:da:17:1b:3f:b2:43:25:
                    8e:e1:0d:a5:ec:a7:9a:c1:90:cc:41:02:42:f0:2c:
                    e3:44:74:dd:ff:1d:12:86:23:d7:9a:b1:36:00:2a:
                    d1:4b:d0:95:b4:4b:15:1f:1d:6d:51:25:4a:6e:f6:
                    05:57:05:3c:50:92:15:b9:1b:af:2d:ef:6f:9f:80:
                    3d:4a:e8:3d:fc:67:81:c6:64:7f:d1:89:ba:5c:a6:
                    d1:85:dc:40:5c:12:1e:98:98:75:ee:8e:4a:87:fc:
                    9a:53:01:26:c5:36:8a:ee:93:6d:f7:73:68:0e:78:
                    73:27:ff:0a:0a:b4:82:9e:98:8a:62:4d:d0:21:14:
                    33:55
                Exponent: 65537 (0x10001)
        X509v3 extensions:
            X509v3 Authority Key Identifier: 
                keyid:85:1F:84:64:46:85:69:34:22:20:14:BD:0D:D7:1D:62:DF:B0:86:24

            X509v3 Basic Constraints: critical
                CA:TRUE, pathlen:0
            X509v3 Extended Key Usage: 
                TLS Web Client Authentication, TLS Web Server Authentication
            X509v3 Key Usage: critical
                Certificate Sign, CRL Sign
            X509v3 Subject Key Identifier: 
                9A:0A:6C:A8:2B:CF:1D:26:1C:B0:0C:D6:51:25:DF:BF:CD:92:67:B7
    Signature Algorithm: sha256WithRSAEncryption
         b1:1c:24:be:7e:a3:19:9d:82:af:cd:ac:ce:20:76:ad:3d:ab:
         e9:ab:85:f2:59:0e:1a:93:72:2e:bb:c9:f0:78:9b:7d:5e:31:
         70:88:92:03:61:93:14:e1:7c:59:a7:b0:83:6e:51:ad:ec:59:
         30:42:ce:27:01:9a:a9:e1:77:52:dd:fb:fa:68:2d:61:8c:e0:
         d2:7f:7a:cd:29:02:b3:48:a6:66:11:75:a1:db:8f:eb:f5:b9:
         01:24:1d:ba:be:b4:9f:3c:e4:ef:3f:cc:d4:bc:d9:5f:06:6b:
         a3:08:77:a0:f0:62:5b:0d:99:11:d1:86:66:67:71:cd:d8:5f:
         b7:78:98:f0:fa:d9:de:ba:4e:82:75:81:72:06:e7:4f:40:a7:
         05:20:b5:0e:c0:ae:c7:1e:56:f3:5e:af:15:0d:19:69:0f:0d:
         9e:d4:74:28:78:24:b3:68:ca:62:70:da:e1:c5:50:0b:76:ac:
         2b:3e:f8:bb:17:1d:97:ac:29:6a:6e:b1:e9:95:c6:37:84:b7:
         4a:4e:1a:9f:8b:2d:d2:0d:55:ee:c2:1b:62:ae:ce:3d:98:b3:
         65:7a:2f:bd:eb:03:65:4d:78:8a:10:5a:ff:55:fc:b4:cd:97:
         81:d2:45:61:7b:9f:2a:09:13:f3:55:1b:ea:14:02:38:c1:bf:
         03:f8:74:67
-----BEGIN CERTIFICATE-----
MIIDSTCCAjGgAwIBAgIQWqgHQjBMAOVYg12V4AW8PzANBgkqhkiG9w0BAQsFADAY
MRYwFAYDVQQDDA1DdXN0b20gUm9vdENBMCAXDTIzMDkyNjIyMzAyNVoYDzIwNTMw
OTE4MjIzMDI1WjAeMRwwGgYDVQQDDBNDdXN0b20gUm9vdENBIFN1YkNBMIIBIjAN
BgkqhkiG9w0BAQEFAAOCAQ8AMIIBCgKCAQEAuM36+qG6szQ6PP90lFnF7xYkI/HY
W0oza8jSxEw+huPle8uN3xUW95Zhp+xT+8FCIGqbF9JbS26fq0XeY/ZgygkAfob5
ZeTeiUlo13JBiOCatPNI2dGlBRSfApSSJm4NKH09/FvYuCd+q8XDMPUZ9cf7Bq9z
wO44QXZ9GI2NINoXGz+yQyWO4Q2l7KeawZDMQQJC8CzjRHTd/x0ShiPXmrE2ACrR
S9CVtEsVHx1tUSVKbvYFVwU8UJIVuRuvLe9vn4A9Sug9/GeBxmR/0Ym6XKbRhdxA
XBIemJh17o5Kh/yaUwEmxTaK7pNt93NoDnhzJ/8KCrSCnpiKYk3QIRQzVQIDAQAB
o4GGMIGDMB8GA1UdIwQYMBaAFIUfhGRGhWk0IiAUvQ3XHWLfsIYkMBIGA1UdEwEB
/wQIMAYBAf8CAQAwHQYDVR0lBBYwFAYIKwYBBQUHAwIGCCsGAQUFBwMBMA4GA1Ud
DwEB/wQEAwIBBjAdBgNVHQ4EFgQUmgpsqCvPHSYcsAzWUSXfv82SZ7cwDQYJKoZI
hvcNAQELBQADggEBALEcJL5+oxmdgq/NrM4gdq09q+mrhfJZDhqTci67yfB4m31e
MXCIkgNhkxThfFmnsINuUa3sWTBCzicBmqnhd1Ld+/poLWGM4NJ/es0pArNIpmYR
daHbj+v1uQEkHbq+tJ885O8/zNS82V8Ga6MId6DwYlsNmRHRhmZncc3YX7d4mPD6
2d66ToJ1gXIG509ApwUgtQ7ArsceVvNerxUNGWkPDZ7UdCh4JLNoymJw2uHFUAt2
rCs++LsXHZesKWpusemVxjeEt0pOGp+LLdINVe7CG2Kuzj2Ys2V6L73rA2VNeIoQ
Wv9V/LTNl4HSRWF7nyoJE/NVG+oUAjjBvwP4dGc=
-----END CERTIFICATE-----
