Certificate:
    Data:
        Version: 3 (0x2)
        Serial Number:
            50:17:99:6e:7d:8a:ba:60:c6:cd:33:35:a1:b5:09:60
    Signature Algorithm: sha256WithRSAEncryption
        Issuer: CN=Custom RootCA SubCA
        Validity
            Not Before: Sep 26 14:42:07 2023 GMT
            Not After : Sep 18 14:42:07 2053 GMT
        Subject: C=US, ST=AZ, O=Custom Technology, OU=IoT, CN=rnwf02_device_01
        Subject Public Key Info:
            Public Key Algorithm: rsaEncryption
                RSA Public-Key: (2048 bit)
                Modulus:
                    00:eb:bf:1b:49:95:a2:02:85:01:18:eb:af:12:29:
                    90:77:fc:08:6d:8d:3e:db:22:54:50:94:11:5e:ee:
                    6f:34:6d:56:49:26:c6:3c:db:87:87:df:13:27:dd:
                    9a:44:cf:65:e6:18:12:cf:26:8b:06:f6:3b:b0:ee:
                    26:5a:f1:88:52:59:be:50:c3:dd:b3:13:8f:d2:22:
                    99:8c:f9:52:24:cf:88:66:2a:d9:22:89:bf:6c:82:
                    1b:a2:46:81:f0:b9:07:bc:26:bf:7c:03:ee:84:39:
                    ee:73:99:01:61:e2:e6:6b:55:95:13:62:74:db:2c:
                    2b:a9:10:46:16:9f:aa:d0:4c:a8:5f:ea:18:c3:bc:
                    07:76:ad:31:8d:f6:1c:5f:cf:02:45:1b:1e:e7:12:
                    46:11:3f:f4:66:02:9d:f7:17:d7:c3:ca:09:32:a4:
                    9d:aa:82:42:b1:4f:24:65:a7:e9:c1:e1:72:61:b7:
                    09:96:49:4f:ec:f6:20:f9:05:c1:61:e2:05:e4:c5:
                    64:12:be:f2:3c:3c:3d:20:47:0f:74:51:89:e9:8e:
                    c1:2e:ec:de:21:64:dd:ba:65:49:95:c7:95:22:29:
                    b6:ad:9d:c4:e4:07:45:8a:b2:b1:2c:d6:f9:cd:77:
                    a1:0f:b9:91:c6:6e:01:a4:7c:11:ba:9a:ef:22:c7:
                    4b:8b
                Exponent: 65537 (0x10001)
        X509v3 extensions:
            X509v3 Authority Key Identifier: 
                keyid:6D:A3:FE:25:AB:DA:15:0F:3C:B3:A3:DA:2A:FB:D7:82:92:96:E7:19

            X509v3 Basic Constraints: critical
                CA:FALSE
            X509v3 Extended Key Usage: 
                TLS Web Client Authentication
            X509v3 Key Usage: critical
                Digital Signature
            X509v3 Subject Key Identifier: 
                A6:0B:7D:D2:6A:21:C3:1F:03:97:AA:91:14:E4:11:F2:FA:AD:75:54
    Signature Algorithm: sha256WithRSAEncryption
         c4:5b:53:55:73:5e:7b:90:c5:c7:ff:91:4a:4e:85:a1:d5:0b:
         e8:16:9c:96:f8:96:0d:33:13:12:5c:58:5b:a7:9f:0c:b6:0c:
         94:e5:6a:cb:04:b7:7c:a5:3b:08:df:95:84:1c:4a:a8:bf:da:
         4c:6f:b7:4d:83:5c:36:1c:1f:03:c8:09:3a:96:61:c9:e0:f6:
         cf:e2:6f:4c:ea:9a:3a:c3:77:0a:4a:2e:7f:1b:91:08:c0:4c:
         35:93:1d:7d:42:80:4f:27:ef:84:eb:bb:be:d2:db:1a:a0:33:
         b5:77:aa:fa:1c:4a:12:c2:8d:ea:99:2f:7e:45:4c:96:98:cf:
         47:f2:6a:4d:d8:44:84:3f:65:61:02:0e:a3:93:9c:23:67:d9:
         7c:97:da:4c:05:91:ea:ec:ac:a7:60:a9:c3:51:c2:30:fb:af:
         70:a1:46:a4:2d:ea:08:6b:06:94:a1:42:8f:a8:34:23:a3:05:
         11:7f:9d:d4:dc:e7:a9:ac:8f:63:12:81:f9:dc:bd:99:da:37:
         3d:a4:2c:87:4c:6f:27:41:9e:0f:0b:1f:92:81:87:3e:11:2e:
         00:06:be:24:ab:ad:c7:d6:6d:f7:a6:47:f3:99:c8:07:ca:33:
         a0:59:32:74:80:a2:10:f0:8c:98:6e:af:d8:d6:d5:d0:43:87:
         27:67:73:94
-----BEGIN CERTIFICATE-----
MIIDfjCCAmagAwIBAgIQUBeZbn2KumDGzTM1obUJYDANBgkqhkiG9w0BAQsFADAe
MRwwGgYDVQQDDBNDdXN0b20gUm9vdENBIFN1YkNBMCAXDTIzMDkyNjE0NDIwN1oY
DzIwNTMwOTE4MTQ0MjA3WjBfMQswCQYDVQQGEwJVUzELMAkGA1UECAwCQVoxGjAY
BgNVBAoMEUN1c3RvbSBUZWNobm9sb2d5MQwwCgYDVQQLDANJb1QxGTAXBgNVBAMM
EHJud2YwMl9kZXZpY2VfMDEwggEiMA0GCSqGSIb3DQEBAQUAA4IBDwAwggEKAoIB
AQDrvxtJlaIChQEY668SKZB3/AhtjT7bIlRQlBFe7m80bVZJJsY824eH3xMn3ZpE
z2XmGBLPJosG9juw7iZa8YhSWb5Qw92zE4/SIpmM+VIkz4hmKtkiib9sghuiRoHw
uQe8Jr98A+6EOe5zmQFh4uZrVZUTYnTbLCupEEYWn6rQTKhf6hjDvAd2rTGN9hxf
zwJFGx7nEkYRP/RmAp33F9fDygkypJ2qgkKxTyRlp+nB4XJhtwmWSU/s9iD5BcFh
4gXkxWQSvvI8PD0gRw90UYnpjsEu7N4hZN26ZUmVx5UiKbatncTkB0WKsrEs1vnN
d6EPuZHGbgGkfBG6mu8ix0uLAgMBAAGjdTBzMB8GA1UdIwQYMBaAFG2j/iWr2hUP
PLOj2ir714KSlucZMAwGA1UdEwEB/wQCMAAwEwYDVR0lBAwwCgYIKwYBBQUHAwIw
DgYDVR0PAQH/BAQDAgeAMB0GA1UdDgQWBBSmC33SaiHDHwOXqpEU5BHy+q11VDAN
BgkqhkiG9w0BAQsFAAOCAQEAxFtTVXNee5DFx/+RSk6FodUL6BaclviWDTMTElxY
W6efDLYMlOVqywS3fKU7CN+VhBxKqL/aTG+3TYNcNhwfA8gJOpZhyeD2z+JvTOqa
OsN3CkoufxuRCMBMNZMdfUKATyfvhOu7vtLbGqAztXeq+hxKEsKN6pkvfkVMlpjP
R/JqTdhEhD9lYQIOo5OcI2fZfJfaTAWR6uysp2Cpw1HCMPuvcKFGpC3qCGsGlKFC
j6g0I6MFEX+d1NznqayPYxKB+dy9mdo3PaQsh0xvJ0GeDwsfkoGHPhEuAAa+JKut
x9Zt96ZH85nIB8ozoFkydICiEPCMmG6v2NbV0EOHJ2dzlA==
-----END CERTIFICATE-----
