Certificate:
    Data:
        Version: 3 (0x2)
        Serial Number:
            c2:a1:5c:d6:aa:1f:90:2b:f3:7b:e2:95:ec:06:bd:22
    Signature Algorithm: sha256WithRSAEncryption
        Issuer: CN=Custom RootCA SubCA
        Validity
            Not Before: Sep 26 23:11:51 2023 GMT
            Not After : Sep 18 23:11:51 2053 GMT
        Subject: C=US, ST=AZ, O=Custom Technology, OU=IoT, CN=acd_01
        Subject Public Key Info:
            Public Key Algorithm: rsaEncryption
                RSA Public-Key: (2048 bit)
                Modulus:
                    00:99:b6:1d:be:2a:8f:10:62:29:3d:c2:fc:2a:f7:
                    77:12:fe:28:b0:d8:99:fc:44:70:f2:6d:c3:4c:24:
                    dc:74:65:14:16:82:fb:e6:36:49:06:de:ef:1c:f9:
                    ea:27:6a:d5:c5:36:e0:49:86:ff:5f:30:0f:77:78:
                    dc:d4:00:66:a4:11:37:f2:cd:eb:92:57:6d:7f:3a:
                    14:af:d7:ab:c1:68:1c:dd:3e:0b:4b:72:15:ee:47:
                    08:ce:cb:44:2e:e4:36:af:bc:aa:e4:08:8f:4a:68:
                    74:bd:06:1d:e7:d7:b6:75:fb:44:30:66:37:79:31:
                    9b:17:83:e5:69:7f:63:28:5f:eb:c8:c9:ef:8f:c6:
                    52:a6:7d:79:c2:6b:40:f1:92:b3:1b:7d:c5:31:20:
                    9b:51:d5:1c:b6:63:da:fa:14:39:e5:90:16:03:5c:
                    6c:b2:c5:6a:16:97:b8:93:d9:c1:9a:79:f1:87:37:
                    2f:97:10:ad:59:e6:d6:61:72:bf:66:1b:1e:6f:90:
                    55:95:3f:59:2e:46:cc:24:84:6e:6f:20:f8:3f:04:
                    0c:a9:39:8f:29:9b:8f:3c:1c:20:16:2a:ce:39:5d:
                    d1:de:6c:64:99:af:aa:70:a8:3d:51:56:a6:8f:2c:
                    64:6f:2c:45:ec:fa:e5:47:23:7b:fa:07:07:e7:1e:
                    e8:2d
                Exponent: 65537 (0x10001)
        X509v3 extensions:
            X509v3 Authority Key Identifier: 
                keyid:9A:0A:6C:A8:2B:CF:1D:26:1C:B0:0C:D6:51:25:DF:BF:CD:92:67:B7

            X509v3 Basic Constraints: critical
                CA:FALSE
            X509v3 Extended Key Usage: 
                TLS Web Client Authentication
            X509v3 Key Usage: critical
                Digital Signature
            X509v3 Subject Key Identifier: 
                D2:E4:D4:41:85:92:93:06:B6:25:5F:54:F9:63:F2:B2:89:3E:48:E3
    Signature Algorithm: sha256WithRSAEncryption
         1c:0c:84:1c:7f:f0:c6:4a:f5:f1:9d:d2:00:e4:c6:ab:d7:73:
         45:14:86:35:73:89:44:24:03:1c:b0:a2:4a:cd:69:a6:fe:13:
         70:a7:af:ba:bf:9d:a4:52:4f:c6:45:18:df:44:19:33:0d:4e:
         70:48:e9:09:e0:6b:5f:5c:44:b8:e6:74:d8:3b:b8:8f:0c:18:
         c0:ea:94:72:9e:f7:dc:51:10:36:71:ed:82:63:0e:7e:45:f3:
         98:08:4b:75:07:e5:a9:15:da:b2:dd:80:7e:53:7d:af:9e:24:
         d8:d7:ca:1e:75:1d:36:34:44:52:bb:c7:e3:5f:79:f5:d0:6c:
         ba:26:25:7d:5b:dd:3d:8b:ca:81:71:a7:57:ff:4f:41:62:aa:
         93:87:a0:e8:5b:b3:01:4f:9e:12:31:6e:dd:d0:f0:b5:20:36:
         2b:e9:14:bd:38:72:fc:47:78:be:56:75:f3:c7:54:87:50:14:
         61:58:92:a2:82:fc:08:e6:58:8f:96:c7:b2:9b:fe:c7:2b:0b:
         18:e0:8d:f0:3c:b7:08:7e:95:1d:6a:df:9e:f0:b2:fd:ab:8f:
         8d:89:2f:7b:5a:35:11:4c:65:97:ee:57:05:7b:33:e7:1f:12:
         48:9f:46:9d:9b:23:e3:b1:8f:9c:40:fd:b4:82:be:90:08:1c:
         b1:1d:28:67
-----BEGIN CERTIFICATE-----
MIIDdTCCAl2gAwIBAgIRAMKhXNaqH5Ar83vilewGvSIwDQYJKoZIhvcNAQELBQAw
HjEcMBoGA1UEAwwTQ3VzdG9tIFJvb3RDQSBTdWJDQTAgFw0yMzA5MjYyMzExNTFa
GA8yMDUzMDkxODIzMTE1MVowVTELMAkGA1UEBhMCVVMxCzAJBgNVBAgMAkFaMRow
GAYDVQQKDBFDdXN0b20gVGVjaG5vbG9neTEMMAoGA1UECwwDSW9UMQ8wDQYDVQQD
DAZhY2RfMDEwggEiMA0GCSqGSIb3DQEBAQUAA4IBDwAwggEKAoIBAQCZth2+Ko8Q
Yik9wvwq93cS/iiw2Jn8RHDybcNMJNx0ZRQWgvvmNkkG3u8c+eonatXFNuBJhv9f
MA93eNzUAGakETfyzeuSV21/OhSv16vBaBzdPgtLchXuRwjOy0Qu5DavvKrkCI9K
aHS9Bh3n17Z1+0QwZjd5MZsXg+Vpf2MoX+vIye+PxlKmfXnCa0DxkrMbfcUxIJtR
1Ry2Y9r6FDnlkBYDXGyyxWoWl7iT2cGaefGHNy+XEK1Z5tZhcr9mGx5vkFWVP1ku
RswkhG5vIPg/BAypOY8pm488HCAWKs45XdHebGSZr6pwqD1RVqaPLGRvLEXs+uVH
I3v6BwfnHugtAgMBAAGjdTBzMB8GA1UdIwQYMBaAFJoKbKgrzx0mHLAM1lEl37/N
kme3MAwGA1UdEwEB/wQCMAAwEwYDVR0lBAwwCgYIKwYBBQUHAwIwDgYDVR0PAQH/
BAQDAgeAMB0GA1UdDgQWBBTS5NRBhZKTBrYlX1T5Y/KyiT5I4zANBgkqhkiG9w0B
AQsFAAOCAQEAHAyEHH/wxkr18Z3SAOTGq9dzRRSGNXOJRCQDHLCiSs1ppv4TcKev
ur+dpFJPxkUY30QZMw1OcEjpCeBrX1xEuOZ02Du4jwwYwOqUcp733FEQNnHtgmMO
fkXzmAhLdQflqRXast2AflN9r54k2NfKHnUdNjREUrvH41959dBsuiYlfVvdPYvK
gXGnV/9PQWKqk4eg6FuzAU+eEjFu3dDwtSA2K+kUvThy/Ed4vlZ188dUh1AUYViS
ooL8COZYj5bHspv+xysLGOCN8Dy3CH6VHWrfnvCy/auPjYkve1o1EUxll+5XBXsz
5x8SSJ9GnZsj47GPnED9tIK+kAgcsR0oZw==
-----END CERTIFICATE-----
