Certificate:
    Data:
        Version: 3 (0x2)
        Serial Number:
            f9:df:85:60:38:ea:e7:d4:8f:89:e4:64:29:44:ad:0d
    Signature Algorithm: sha256WithRSAEncryption
        Issuer: CN=Custom RootCA SubCA
        Validity
            Not Before: Sep 26 19:18:35 2023 GMT
            Not After : Sep 18 19:18:35 2053 GMT
        Subject: C=US, ST=AZ, O=Custom Technology, OU=IoT, CN=rnwf02_device_02
        Subject Public Key Info:
            Public Key Algorithm: rsaEncryption
                RSA Public-Key: (2048 bit)
                Modulus:
                    00:be:90:71:a6:bf:d1:63:d3:26:0a:7e:97:f5:75:
                    29:14:ce:76:58:02:d8:2c:a7:eb:74:57:24:68:f0:
                    9b:83:61:bb:94:f3:67:61:5e:46:01:a1:ae:b5:c3:
                    d2:d8:fb:b6:3f:a5:b9:a9:2c:3a:99:e3:66:79:cf:
                    db:b1:6b:42:7e:51:14:fb:21:3d:6a:71:22:26:fa:
                    2c:0d:44:b4:c1:ab:e9:ac:20:6c:fd:37:27:a1:19:
                    28:26:95:10:a3:d0:d7:be:7c:20:10:e9:a9:fe:80:
                    a2:82:26:01:a2:9c:56:36:14:4f:7c:e8:8e:5e:c4:
                    32:ae:57:1c:b9:86:00:6f:80:21:66:c3:53:d2:d8:
                    4f:80:87:5d:10:89:9e:93:1a:c0:25:eb:85:8b:a8:
                    d6:be:0b:ff:b4:9d:b6:65:aa:9a:1f:f3:2c:cd:fb:
                    2b:69:d8:56:c7:bf:84:54:d5:a7:55:df:ea:34:c3:
                    b6:77:eb:f5:cf:51:21:01:b0:c1:1a:ff:29:2b:23:
                    b1:69:b6:5e:c2:7b:52:28:0e:a4:17:ed:bc:09:81:
                    6b:68:08:d2:c0:f3:fa:04:48:f5:4f:de:6c:9e:16:
                    86:60:5e:eb:09:8f:c3:38:de:41:ac:6b:4b:af:44:
                    38:0b:84:0f:bf:63:3b:90:ae:7c:ba:8c:35:ea:90:
                    d2:5b
                Exponent: 65537 (0x10001)
        X509v3 extensions:
            X509v3 Authority Key Identifier: 
                keyid:AE:42:1C:32:58:1F:E4:FD:A8:5C:66:88:6B:29:0E:46:5B:BA:94:5C

            X509v3 Basic Constraints: critical
                CA:FALSE
            X509v3 Extended Key Usage: 
                TLS Web Client Authentication
            X509v3 Key Usage: critical
                Digital Signature
            X509v3 Subject Key Identifier: 
                86:20:BC:B6:0C:2C:64:81:F6:6B:FB:EA:49:82:A7:DA:3B:6D:B7:16
    Signature Algorithm: sha256WithRSAEncryption
         5b:ca:29:b6:72:68:b2:d4:de:a3:9e:07:4d:18:aa:6d:6a:01:
         e8:81:03:7e:39:22:e8:a5:2e:da:25:c9:d4:06:b1:26:05:1e:
         70:a7:ae:6e:97:bc:13:1a:92:07:c6:6b:25:e4:ed:5e:f9:e4:
         0c:69:90:7f:d1:d7:10:f6:1d:68:9f:9f:15:39:82:6d:cc:73:
         0d:95:2f:e7:c7:fc:48:6d:e8:ce:0b:38:3d:b4:3b:d8:31:64:
         16:b7:b4:b4:e5:1b:df:d5:a2:08:b2:53:ef:b5:09:00:be:db:
         22:76:0e:a0:f6:94:77:16:96:b9:0f:86:8a:d5:f8:ba:a0:20:
         31:ca:07:0f:07:e2:c7:e1:f2:c5:08:77:6a:ee:fc:18:cc:d7:
         70:0f:82:b1:45:11:99:de:86:c8:46:70:a6:82:79:7a:a7:34:
         43:fe:05:07:f6:ce:17:ec:a9:88:ae:51:ec:69:38:e0:6e:99:
         2e:0c:c2:75:bc:bc:6f:82:25:bb:be:16:4c:23:ea:54:b6:a1:
         6f:2c:17:59:9d:ab:64:a4:5d:3d:4b:9b:d7:02:16:64:66:35:
         eb:47:40:d4:3a:5a:a2:4d:37:c4:f7:5a:f6:dc:64:b1:53:d8:
         12:51:81:fd:a8:ca:cd:04:8c:45:df:7a:de:a0:63:32:4a:c0:
         98:e6:b4:af
-----BEGIN CERTIFICATE-----
MIIDfzCCAmegAwIBAgIRAPnfhWA46ufUj4nkZClErQ0wDQYJKoZIhvcNAQELBQAw
HjEcMBoGA1UEAwwTQ3VzdG9tIFJvb3RDQSBTdWJDQTAgFw0yMzA5MjYxOTE4MzVa
GA8yMDUzMDkxODE5MTgzNVowXzELMAkGA1UEBhMCVVMxCzAJBgNVBAgMAkFaMRow
GAYDVQQKDBFDdXN0b20gVGVjaG5vbG9neTEMMAoGA1UECwwDSW9UMRkwFwYDVQQD
DBBybndmMDJfZGV2aWNlXzAyMIIBIjANBgkqhkiG9w0BAQEFAAOCAQ8AMIIBCgKC
AQEAvpBxpr/RY9MmCn6X9XUpFM52WALYLKfrdFckaPCbg2G7lPNnYV5GAaGutcPS
2Pu2P6W5qSw6meNmec/bsWtCflEU+yE9anEiJvosDUS0wavprCBs/TcnoRkoJpUQ
o9DXvnwgEOmp/oCigiYBopxWNhRPfOiOXsQyrlccuYYAb4AhZsNT0thPgIddEIme
kxrAJeuFi6jWvgv/tJ22ZaqaH/MszfsradhWx7+EVNWnVd/qNMO2d+v1z1EhAbDB
Gv8pKyOxabZewntSKA6kF+28CYFraAjSwPP6BEj1T95snhaGYF7rCY/DON5BrGtL
r0Q4C4QPv2M7kK58uow16pDSWwIDAQABo3UwczAfBgNVHSMEGDAWgBSuQhwyWB/k
/ahcZohrKQ5GW7qUXDAMBgNVHRMBAf8EAjAAMBMGA1UdJQQMMAoGCCsGAQUFBwMC
MA4GA1UdDwEB/wQEAwIHgDAdBgNVHQ4EFgQUhiC8tgwsZIH2a/vqSYKn2jtttxYw
DQYJKoZIhvcNAQELBQADggEBAFvKKbZyaLLU3qOeB00Yqm1qAeiBA345IuilLtol
ydQGsSYFHnCnrm6XvBMakgfGayXk7V755AxpkH/R1xD2HWifnxU5gm3Mcw2VL+fH
/Eht6M4LOD20O9gxZBa3tLTlG9/VogiyU++1CQC+2yJ2DqD2lHcWlrkPhorV+Lqg
IDHKBw8H4sfh8sUId2ru/BjM13APgrFFEZnehshGcKaCeXqnNEP+BQf2zhfsqYiu
UexpOOBumS4MwnW8vG+CJbu+Fkwj6lS2oW8sF1mdq2SkXT1Lm9cCFmRmNetHQNQ6
WqJNN8T3WvbcZLFT2BJRgf2oys0EjEXfet6gYzJKwJjmtK8=
-----END CERTIFICATE-----
