Certificate:
    Data:
        Version: 3 (0x2)
        Serial Number:
            38:1f:c7:21:22:f0:d6:8b:1f:1f:05:20:e5:5e:a2:de
    Signature Algorithm: sha256WithRSAEncryption
        Issuer: CN=Custom RootCA
        Validity
            Not Before: Sep 26 14:41:26 2023 GMT
            Not After : Sep 18 14:41:26 2053 GMT
        Subject: CN=Custom RootCA
        Subject Public Key Info:
            Public Key Algorithm: rsaEncryption
                RSA Public-Key: (2048 bit)
                Modulus:
                    00:b4:34:e9:23:b8:b5:48:71:d6:d5:1d:d6:30:a4:
                    d0:55:91:08:f0:b8:e5:88:cb:24:9a:82:37:ef:d0:
                    ab:e4:91:6c:f1:4f:a9:eb:87:08:7d:d0:a7:b6:cb:
                    05:60:ec:86:a5:9b:46:2d:db:f5:d8:27:33:1c:36:
                    45:04:04:b7:94:78:b4:49:6f:6b:b5:d4:0b:c8:f8:
                    cd:09:31:de:50:9c:70:74:71:c7:73:bb:10:4e:fc:
                    0e:36:d3:85:e7:0d:f6:df:e4:aa:19:ad:ec:58:ad:
                    df:b5:81:dc:d3:57:88:0e:d8:b9:ea:ee:ff:86:87:
                    f7:e1:02:47:f7:0c:ed:c6:5b:3a:57:28:22:62:ab:
                    99:95:6e:98:a9:93:23:94:34:90:ad:cd:73:1b:89:
                    9f:56:84:f0:84:65:df:64:8a:c0:85:09:cc:05:6b:
                    54:62:a6:a9:1d:4b:c9:df:c6:30:31:53:17:ce:d6:
                    70:9e:f5:45:03:15:01:35:b4:09:1b:5f:96:a4:20:
                    e8:16:60:8b:c8:92:fd:80:82:da:35:27:8f:1a:6d:
                    e6:7a:f4:65:40:f8:a7:d2:92:72:5d:6c:9c:2a:ed:
                    b3:34:6f:49:7f:30:96:17:77:ca:f8:c6:f2:8f:98:
                    0e:bd:c1:7a:39:32:56:cc:a9:dd:a1:c3:44:37:42:
                    bc:0d
                Exponent: 65537 (0x10001)
        X509v3 extensions:
            X509v3 Basic Constraints: critical
                CA:TRUE
            X509v3 Key Usage: critical
                Certificate Sign, CRL Sign
            X509v3 Subject Key Identifier: 
                3C:5F:31:59:5E:F7:24:1F:F3:5D:76:65:E2:29:BA:70:DF:F1:DD:42
    Signature Algorithm: sha256WithRSAEncryption
         57:f2:8a:f9:99:2f:df:6e:4d:37:68:2a:d6:b6:97:e7:74:eb:
         d6:f0:ea:65:ae:86:6c:25:46:91:63:32:3e:97:3d:3d:fe:32:
         9e:16:a0:23:81:01:de:c3:34:fd:0e:21:c7:16:5b:f6:25:9b:
         73:6b:09:0a:79:c3:48:d0:61:e5:cb:77:8e:37:68:75:d8:f1:
         76:18:71:c2:26:56:68:ae:6c:21:08:44:92:b8:3b:db:3a:c9:
         a9:f0:f6:42:54:38:71:97:3f:c9:6a:23:68:ff:45:d5:80:55:
         87:7b:37:22:d4:7d:f5:64:c2:a9:14:6c:fe:2f:5e:08:9a:fe:
         68:e1:08:be:11:83:d9:43:4d:c6:16:24:96:c6:bc:a5:ac:f6:
         a8:87:20:8a:d5:7e:e1:0e:05:6b:5d:0f:8b:96:1c:2a:33:3d:
         be:c4:a8:ef:40:23:f0:84:c5:52:80:ab:bd:6b:79:e8:ff:b8:
         19:34:35:71:3f:b0:a9:9d:18:60:78:4c:7a:c0:f5:6b:98:96:
         38:28:7b:4e:5e:ab:73:1d:f6:54:53:c9:b5:8d:09:e1:5e:a3:
         e2:c6:54:81:d6:1a:fb:19:b0:34:21:7c:3d:75:31:33:0d:2a:
         e5:ad:ad:0d:49:b0:d7:82:29:ed:a2:49:96:25:ac:73:d6:29:
         04:df:4f:a6
-----BEGIN CERTIFICATE-----
MIIC/jCCAeagAwIBAgIQOB/HISLw1osfHwUg5V6i3jANBgkqhkiG9w0BAQsFADAY
MRYwFAYDVQQDDA1DdXN0b20gUm9vdENBMCAXDTIzMDkyNjE0NDEyNloYDzIwNTMw
OTE4MTQ0MTI2WjAYMRYwFAYDVQQDDA1DdXN0b20gUm9vdENBMIIBIjANBgkqhkiG
9w0BAQEFAAOCAQ8AMIIBCgKCAQEAtDTpI7i1SHHW1R3WMKTQVZEI8LjliMskmoI3
79Cr5JFs8U+p64cIfdCntssFYOyGpZtGLdv12CczHDZFBAS3lHi0SW9rtdQLyPjN
CTHeUJxwdHHHc7sQTvwONtOF5w323+SqGa3sWK3ftYHc01eIDti56u7/hof34QJH
9wztxls6VygiYquZlW6YqZMjlDSQrc1zG4mfVoTwhGXfZIrAhQnMBWtUYqapHUvJ
38YwMVMXztZwnvVFAxUBNbQJG1+WpCDoFmCLyJL9gILaNSePGm3mevRlQPin0pJy
XWycKu2zNG9JfzCWF3fK+Mbyj5gOvcF6OTJWzKndocNEN0K8DQIDAQABo0IwQDAP
BgNVHRMBAf8EBTADAQH/MA4GA1UdDwEB/wQEAwIBBjAdBgNVHQ4EFgQUPF8xWV73
JB/zXXZl4im6cN/x3UIwDQYJKoZIhvcNAQELBQADggEBAFfyivmZL99uTTdoKta2
l+d069bw6mWuhmwlRpFjMj6XPT3+Mp4WoCOBAd7DNP0OIccWW/Ylm3NrCQp5w0jQ
YeXLd443aHXY8XYYccImVmiubCEIRJK4O9s6yanw9kJUOHGXP8lqI2j/RdWAVYd7
NyLUffVkwqkUbP4vXgia/mjhCL4Rg9lDTcYWJJbGvKWs9qiHIIrVfuEOBWtdD4uW
HCozPb7EqO9AI/CExVKAq71reej/uBk0NXE/sKmdGGB4THrA9WuYljgoe05eq3Md
9lRTybWNCeFeo+LGVIHWGvsZsDQhfD11MTMNKuWtrQ1JsNeCKe2iSZYlrHPWKQTf
T6Y=
-----END CERTIFICATE-----
