Certificate:
    Data:
        Version: 3 (0x2)
        Serial Number:
            c0:90:a1:86:2b:d2:a8:d4:30:48:2a:3f:86:93:2a:0b
    Signature Algorithm: sha256WithRSAEncryption
        Issuer: CN=Custom RootCA
        Validity
            Not Before: Sep 26 19:18:19 2023 GMT
            Not After : Sep 18 19:18:19 2053 GMT
        Subject: CN=Custom RootCA SubCA
        Subject Public Key Info:
            Public Key Algorithm: rsaEncryption
                RSA Public-Key: (2048 bit)
                Modulus:
                    00:b6:51:78:50:24:55:82:9a:75:49:8e:f8:6a:7e:
                    2e:f4:33:f5:2d:54:2b:dd:62:64:e0:4b:85:de:f8:
                    28:25:bf:21:5f:0a:db:45:06:e7:10:84:72:7d:07:
                    a2:85:48:c9:e5:e3:07:82:3a:2d:25:a8:54:ca:eb:
                    79:f3:ea:fa:ec:bc:de:8e:85:f8:f3:90:c8:37:10:
                    2e:e3:cc:c9:ba:26:39:69:ac:53:2d:dc:ff:2e:75:
                    f8:0f:73:d0:38:1a:2c:66:d3:63:f0:02:a5:29:91:
                    26:e7:a0:4c:90:80:91:b6:5a:2a:4e:a1:d5:2d:dd:
                    14:1a:0d:8c:76:29:a4:96:e9:f2:21:a4:bd:d2:17:
                    11:c7:5b:58:93:0a:72:9f:04:32:05:c5:da:2b:17:
                    c7:7c:7d:f5:28:46:2c:4b:14:69:5d:61:ff:30:2e:
                    45:ac:d5:ce:f8:41:1f:67:09:dc:df:79:1f:d5:7d:
                    01:e1:74:8f:fc:5f:82:3c:41:3d:fd:02:3e:e3:fd:
                    d1:33:8c:c1:ea:d3:eb:ff:d1:89:4b:0d:23:1d:6d:
                    90:a0:c1:5b:04:92:6b:d9:87:58:97:d1:a9:1f:20:
                    7e:36:37:42:06:55:4c:e0:8f:a7:76:21:94:95:b4:
                    38:f0:89:68:0d:7b:11:e7:95:de:a0:b8:7b:7b:ed:
                    20:af
                Exponent: 65537 (0x10001)
        X509v3 extensions:
            X509v3 Authority Key Identifier: 
                keyid:AA:9F:FB:A2:BC:10:C8:14:0B:13:50:EA:12:74:49:89:9E:0C:22:15

            X509v3 Basic Constraints: critical
                CA:TRUE, pathlen:0
            X509v3 Extended Key Usage: 
                TLS Web Client Authentication, TLS Web Server Authentication
            X509v3 Key Usage: critical
                Certificate Sign, CRL Sign
            X509v3 Subject Key Identifier: 
                AE:42:1C:32:58:1F:E4:FD:A8:5C:66:88:6B:29:0E:46:5B:BA:94:5C
    Signature Algorithm: sha256WithRSAEncryption
         93:c6:70:d1:d8:2a:06:be:e3:ab:3a:7f:0b:58:d6:18:a1:85:
         44:04:d6:50:ce:00:5d:2e:97:93:2c:69:dd:24:d1:9e:29:e2:
         1b:68:d1:a6:75:8c:e8:41:d0:64:7f:50:ab:55:a2:7d:23:6c:
         eb:32:70:0b:ed:26:18:a1:54:f1:5a:bc:be:51:97:26:ce:aa:
         e5:28:0f:ce:ae:80:c5:c3:d9:7b:f0:e2:88:79:fc:2a:dd:b4:
         db:32:95:7f:5d:f2:f2:19:c2:c3:11:9b:1b:76:f9:a9:63:36:
         6b:e1:92:f0:7f:fd:1f:cc:e4:56:bc:7a:7d:8d:ed:3f:cf:b6:
         83:6c:16:12:a2:e0:f2:00:5c:cd:8a:51:2a:fa:2c:4e:b5:7d:
         31:8f:1c:77:86:6f:67:fa:b1:bd:d5:a6:36:b2:07:3e:ad:b7:
         a7:96:2f:d3:90:03:11:90:01:90:3a:89:4e:cf:88:46:53:17:
         0e:02:6e:53:eb:f8:98:4d:d6:52:7b:b5:89:ec:14:7e:76:56:
         fd:e9:e8:27:9e:9a:7a:3c:9d:e9:24:42:9e:d9:91:27:e1:90:
         25:25:dd:be:7a:8b:dd:53:52:67:ff:fd:12:2d:79:91:5b:86:
         d6:1f:ce:3d:bd:d9:62:ba:88:1b:eb:8d:2d:dc:8d:4d:3e:81:
         61:ac:39:7f
-----BEGIN CERTIFICATE-----
MIIDSjCCAjKgAwIBAgIRAMCQoYYr0qjUMEgqP4aTKgswDQYJKoZIhvcNAQELBQAw
GDEWMBQGA1UEAwwNQ3VzdG9tIFJvb3RDQTAgFw0yMzA5MjYxOTE4MTlaGA8yMDUz
MDkxODE5MTgxOVowHjEcMBoGA1UEAwwTQ3VzdG9tIFJvb3RDQSBTdWJDQTCCASIw
DQYJKoZIhvcNAQEBBQADggEPADCCAQoCggEBALZReFAkVYKadUmO+Gp+LvQz9S1U
K91iZOBLhd74KCW/IV8K20UG5xCEcn0HooVIyeXjB4I6LSWoVMrrefPq+uy83o6F
+POQyDcQLuPMybomOWmsUy3c/y51+A9z0DgaLGbTY/ACpSmRJuegTJCAkbZaKk6h
1S3dFBoNjHYppJbp8iGkvdIXEcdbWJMKcp8EMgXF2isXx3x99ShGLEsUaV1h/zAu
RazVzvhBH2cJ3N95H9V9AeF0j/xfgjxBPf0CPuP90TOMwerT6//RiUsNIx1tkKDB
WwSSa9mHWJfRqR8gfjY3QgZVTOCPp3YhlJW0OPCJaA17EeeV3qC4e3vtIK8CAwEA
AaOBhjCBgzAfBgNVHSMEGDAWgBSqn/uivBDIFAsTUOoSdEmJngwiFTASBgNVHRMB
Af8ECDAGAQH/AgEAMB0GA1UdJQQWMBQGCCsGAQUFBwMCBggrBgEFBQcDATAOBgNV
HQ8BAf8EBAMCAQYwHQYDVR0OBBYEFK5CHDJYH+T9qFxmiGspDkZbupRcMA0GCSqG
SIb3DQEBCwUAA4IBAQCTxnDR2CoGvuOrOn8LWNYYoYVEBNZQzgBdLpeTLGndJNGe
KeIbaNGmdYzoQdBkf1CrVaJ9I2zrMnAL7SYYoVTxWry+UZcmzqrlKA/OroDFw9l7
8OKIefwq3bTbMpV/XfLyGcLDEZsbdvmpYzZr4ZLwf/0fzORWvHp9je0/z7aDbBYS
ouDyAFzNilEq+ixOtX0xjxx3hm9n+rG91aY2sgc+rbenli/TkAMRkAGQOolOz4hG
UxcOAm5T6/iYTdZSe7WJ7BR+dlb96egnnpp6PJ3pJEKe2ZEn4ZAlJd2+eovdU1Jn
//0SLXmRW4bWH849vdliuogb640t3I1NPoFhrDl/
-----END CERTIFICATE-----
