Certificate:
    Data:
        Version: 3 (0x2)
        Serial Number:
            c0:90:a1:86:2b:d2:a8:d4:30:48:2a:3f:86:93:2a:0a
    Signature Algorithm: sha256WithRSAEncryption
        Issuer: CN=Custom RootCA
        Validity
            Not Before: Sep 26 19:18:19 2023 GMT
            Not After : Sep 18 19:18:19 2053 GMT
        Subject: CN=Custom RootCA
        Subject Public Key Info:
            Public Key Algorithm: rsaEncryption
                RSA Public-Key: (2048 bit)
                Modulus:
                    00:ab:4c:a1:6f:22:a9:da:58:bd:2c:32:18:5d:14:
                    51:ab:11:80:85:f3:6c:47:3f:19:ff:51:26:51:06:
                    6e:1d:16:7f:d5:2e:ac:e3:db:58:70:43:f5:3d:39:
                    32:d2:df:b6:ec:91:9b:9e:60:3c:99:1b:1b:c7:84:
                    81:bb:09:13:6b:84:a2:15:31:48:23:7b:2e:6a:06:
                    b4:56:7b:88:af:d6:4f:7f:d0:64:70:fe:94:60:cd:
                    65:fe:2a:f6:5b:d8:99:f4:4d:05:e4:47:63:3d:ea:
                    d5:ca:63:2d:c3:5f:07:1f:e2:ff:c1:26:60:4f:0e:
                    72:f1:17:8b:fd:35:b4:de:9d:22:87:24:fc:f4:53:
                    7c:2d:30:26:8c:19:89:b1:7f:70:47:66:00:6d:58:
                    5e:b9:78:16:9d:9b:c6:b1:2f:94:eb:85:49:97:74:
                    17:ee:ea:8f:be:1b:06:f6:c5:59:6d:e7:74:12:4b:
                    0f:e3:e7:85:ee:81:2b:95:99:5d:38:40:e8:d5:ec:
                    60:a3:e6:8c:0f:9b:dc:08:71:34:b6:83:6a:7d:4f:
                    e3:06:98:21:17:3c:20:5a:c9:15:76:f8:f4:6f:cf:
                    08:f4:ae:1a:4a:65:97:f5:68:7f:1b:82:8c:4c:14:
                    f3:3a:6b:8b:cb:fc:15:7e:92:06:23:66:df:d0:48:
                    72:57
                Exponent: 65537 (0x10001)
        X509v3 extensions:
            X509v3 Basic Constraints: critical
                CA:TRUE
            X509v3 Key Usage: critical
                Certificate Sign, CRL Sign
            X509v3 Subject Key Identifier: 
                AA:9F:FB:A2:BC:10:C8:14:0B:13:50:EA:12:74:49:89:9E:0C:22:15
    Signature Algorithm: sha256WithRSAEncryption
         97:05:20:86:09:b5:fc:8a:dd:c6:8a:d8:8f:ec:13:e0:5f:fa:
         bb:d2:d4:a7:cc:eb:8e:57:9f:6d:8e:6d:c8:3b:3e:11:5c:a8:
         54:46:fc:0d:50:a7:39:8c:bf:ca:a6:59:54:df:ae:04:87:1b:
         0a:19:38:11:86:a6:60:a1:42:55:6d:67:34:c5:e5:ed:32:b5:
         4a:17:e5:cd:ce:32:ef:56:57:80:cf:51:81:f0:f6:0f:4d:d2:
         91:ad:63:e9:48:58:89:ee:49:27:c8:fe:e7:19:13:96:66:9f:
         93:b0:9b:90:c3:7b:44:e6:9b:83:ac:4c:4c:44:89:8e:e9:d5:
         4f:50:47:50:18:0a:02:c5:90:b3:6d:55:62:43:3c:09:c5:5b:
         bf:60:87:42:03:08:9b:51:58:d7:1f:68:29:2d:e9:e5:e2:97:
         eb:39:38:6e:cf:36:f2:13:8c:c9:39:13:02:2d:93:07:de:59:
         1f:2b:ae:ab:42:e4:09:19:56:9d:6c:50:c6:c4:06:05:b1:db:
         42:bc:31:ec:8e:31:55:a9:0c:2c:24:21:32:97:81:51:9b:c0:
         c7:d6:46:7d:b7:74:44:56:89:4f:7c:4d:74:4f:52:90:cf:9c:
         24:09:78:cd:d1:46:3a:bd:0d:40:b1:eb:19:11:47:30:b9:57:
         f7:14:7b:f6
-----BEGIN CERTIFICATE-----
MIIC/zCCAeegAwIBAgIRAMCQoYYr0qjUMEgqP4aTKgowDQYJKoZIhvcNAQELBQAw
GDEWMBQGA1UEAwwNQ3VzdG9tIFJvb3RDQTAgFw0yMzA5MjYxOTE4MTlaGA8yMDUz
MDkxODE5MTgxOVowGDEWMBQGA1UEAwwNQ3VzdG9tIFJvb3RDQTCCASIwDQYJKoZI
hvcNAQEBBQADggEPADCCAQoCggEBAKtMoW8iqdpYvSwyGF0UUasRgIXzbEc/Gf9R
JlEGbh0Wf9UurOPbWHBD9T05MtLftuyRm55gPJkbG8eEgbsJE2uEohUxSCN7LmoG
tFZ7iK/WT3/QZHD+lGDNZf4q9lvYmfRNBeRHYz3q1cpjLcNfBx/i/8EmYE8OcvEX
i/01tN6dIock/PRTfC0wJowZibF/cEdmAG1YXrl4Fp2bxrEvlOuFSZd0F+7qj74b
BvbFWW3ndBJLD+Pnhe6BK5WZXThA6NXsYKPmjA+b3AhxNLaDan1P4waYIRc8IFrJ
FXb49G/PCPSuGkpll/VofxuCjEwU8zpri8v8FX6SBiNm39BIclcCAwEAAaNCMEAw
DwYDVR0TAQH/BAUwAwEB/zAOBgNVHQ8BAf8EBAMCAQYwHQYDVR0OBBYEFKqf+6K8
EMgUCxNQ6hJ0SYmeDCIVMA0GCSqGSIb3DQEBCwUAA4IBAQCXBSCGCbX8it3GitiP
7BPgX/q70tSnzOuOV59tjm3IOz4RXKhURvwNUKc5jL/KpllU364EhxsKGTgRhqZg
oUJVbWc0xeXtMrVKF+XNzjLvVleAz1GB8PYPTdKRrWPpSFiJ7kknyP7nGROWZp+T
sJuQw3tE5puDrExMRImO6dVPUEdQGAoCxZCzbVViQzwJxVu/YIdCAwibUVjXH2gp
Lenl4pfrOThuzzbyE4zJORMCLZMH3lkfK66rQuQJGVadbFDGxAYFsdtCvDHsjjFV
qQwsJCEyl4FRm8DH1kZ9t3REVolPfE10T1KQz5wkCXjN0UY6vQ1AsesZEUcwuVf3
FHv2
-----END CERTIFICATE-----
