Certificate:
    Data:
        Version: 3 (0x2)
        Serial Number:
            91:0a:77:f1:12:8f:6b:83:8c:01:af:05:84:f3:fa:11
    Signature Algorithm: sha256WithRSAEncryption
        Issuer: CN=Custom RootCA SubCA
        Validity
            Not Before: Sep 10 23:16:43 2023 GMT
            Not After : Sep  9 23:16:43 2024 GMT
        Subject: C=US, ST=AZ, O=Custom Technology, OU=IoT, CN=rnwf02_device_01
        Subject Public Key Info:
            Public Key Algorithm: rsaEncryption
                RSA Public-Key: (2048 bit)
                Modulus:
                    00:da:6f:dd:61:b0:23:4a:5b:86:02:db:7a:88:6b:
                    7f:61:56:5d:fe:99:a5:aa:f8:01:4e:38:90:79:19:
                    9a:53:55:25:62:c1:fc:87:cd:64:3b:72:0e:a6:b8:
                    b9:9a:f1:9a:1d:6f:22:08:f0:fc:37:e8:82:ee:a1:
                    80:7d:fa:aa:1d:8f:c3:ee:72:69:99:f5:82:90:1a:
                    97:92:a9:84:d0:95:6e:8f:2e:5c:23:df:ce:2f:52:
                    04:00:ab:43:6a:5f:2d:90:00:39:71:d4:6b:0c:24:
                    ed:81:a4:a0:7c:9f:bc:41:76:9f:5c:45:43:4f:e3:
                    76:89:a8:46:0d:63:26:3a:19:26:90:01:db:68:ec:
                    1a:05:a7:80:91:c7:7a:9a:44:0c:78:54:5c:45:50:
                    15:f7:f2:ab:07:a0:52:93:b6:de:51:ef:73:e5:bb:
                    7a:95:01:84:39:35:20:0d:cf:55:93:9d:cc:b5:dc:
                    4c:84:33:74:da:ab:c8:bf:2f:e6:ed:cd:c4:2e:01:
                    ec:00:db:23:f5:5c:47:75:4a:cd:e1:77:1e:0b:0a:
                    5e:f1:8d:d7:93:73:84:c2:27:da:e7:33:77:cb:8c:
                    c7:4d:84:7d:88:a7:9d:71:0a:b9:cf:6b:ea:87:7e:
                    ec:d4:cb:8a:66:4b:b7:81:68:6a:0e:01:90:4a:72:
                    df:49
                Exponent: 65537 (0x10001)
        X509v3 extensions:
            X509v3 Authority Key Identifier: 
                keyid:47:03:4A:F9:CD:DC:C6:45:7B:26:09:1E:C6:27:8B:E7:7F:7C:5C:93

            X509v3 Basic Constraints: critical
                CA:FALSE
            X509v3 Extended Key Usage: 
                TLS Web Client Authentication
            X509v3 Key Usage: critical
                Digital Signature
            X509v3 Subject Key Identifier: 
                30:C3:75:02:E1:98:1A:8F:C5:71:A5:A7:8E:60:81:1E:74:48:E5:55
    Signature Algorithm: sha256WithRSAEncryption
         89:ec:89:aa:0a:a3:4f:7f:00:e0:aa:16:ee:99:89:0e:83:a6:
         73:b3:35:88:fc:16:92:dc:27:83:ee:15:34:32:b1:9b:87:81:
         61:83:c7:77:9c:7e:ac:e4:b0:33:73:60:56:3a:35:a7:ed:dc:
         be:6b:02:1e:29:d5:51:f2:16:7d:10:99:27:0c:be:ac:fc:ff:
         8a:9e:a7:2b:68:d4:0a:9f:2c:65:08:34:77:5f:ff:9b:d9:94:
         c7:f2:b6:25:52:3b:07:5f:57:c2:f8:ba:df:a9:67:e2:f9:12:
         0f:ca:1b:dc:f0:e9:eb:24:7e:83:f9:e5:24:33:0d:90:de:3b:
         f2:a1:f0:09:3b:ad:70:ce:ef:6e:cc:ca:1d:22:43:25:1a:2c:
         6f:7c:ec:56:c4:a3:fe:e6:c9:9a:58:ba:31:f5:d2:b5:83:9e:
         7e:dd:78:0c:50:cd:f6:ab:d7:1f:d7:a8:65:43:5c:32:94:dd:
         06:67:af:82:d5:dc:6e:2e:1b:a9:38:72:25:5b:a3:a4:57:72:
         d2:4f:bc:de:69:99:0f:ef:14:6c:0b:bc:cd:21:48:7e:42:85:
         0f:70:30:68:37:a2:32:0a:77:10:a4:1b:8d:f3:e4:48:eb:f8:
         ae:c8:c6:d4:78:4e:a9:ea:ee:79:e6:ed:95:35:9f:e2:ee:ce:
         d6:1f:b4:fd
-----BEGIN CERTIFICATE-----
MIIDfTCCAmWgAwIBAgIRAJEKd/ESj2uDjAGvBYTz+hEwDQYJKoZIhvcNAQELBQAw
HjEcMBoGA1UEAwwTQ3VzdG9tIFJvb3RDQSBTdWJDQTAeFw0yMzA5MTAyMzE2NDNa
Fw0yNDA5MDkyMzE2NDNaMF8xCzAJBgNVBAYTAlVTMQswCQYDVQQIDAJBWjEaMBgG
A1UECgwRQ3VzdG9tIFRlY2hub2xvZ3kxDDAKBgNVBAsMA0lvVDEZMBcGA1UEAwwQ
cm53ZjAyX2RldmljZV8wMTCCASIwDQYJKoZIhvcNAQEBBQADggEPADCCAQoCggEB
ANpv3WGwI0pbhgLbeohrf2FWXf6Zpar4AU44kHkZmlNVJWLB/IfNZDtyDqa4uZrx
mh1vIgjw/Dfogu6hgH36qh2Pw+5yaZn1gpAal5KphNCVbo8uXCPfzi9SBACrQ2pf
LZAAOXHUawwk7YGkoHyfvEF2n1xFQ0/jdomoRg1jJjoZJpAB22jsGgWngJHHeppE
DHhUXEVQFffyqwegUpO23lHvc+W7epUBhDk1IA3PVZOdzLXcTIQzdNqryL8v5u3N
xC4B7ADbI/VcR3VKzeF3HgsKXvGN15NzhMIn2uczd8uMx02EfYinnXEKuc9r6od+
7NTLimZLt4Foag4BkEpy30kCAwEAAaN1MHMwHwYDVR0jBBgwFoAURwNK+c3cxkV7
JgkexieL5398XJMwDAYDVR0TAQH/BAIwADATBgNVHSUEDDAKBggrBgEFBQcDAjAO
BgNVHQ8BAf8EBAMCB4AwHQYDVR0OBBYEFDDDdQLhmBqPxXGlp45ggR50SOVVMA0G
CSqGSIb3DQEBCwUAA4IBAQCJ7ImqCqNPfwDgqhbumYkOg6ZzszWI/BaS3CeD7hU0
MrGbh4Fhg8d3nH6s5LAzc2BWOjWn7dy+awIeKdVR8hZ9EJknDL6s/P+KnqcraNQK
nyxlCDR3X/+b2ZTH8rYlUjsHX1fC+LrfqWfi+RIPyhvc8OnrJH6D+eUkMw2Q3jvy
ofAJO61wzu9uzModIkMlGixvfOxWxKP+5smaWLox9dK1g55+3XgMUM32q9cf16hl
Q1wylN0GZ6+C1dxuLhupOHIlW6OkV3LST7zeaZkP7xRsC7zNIUh+QoUPcDBoN6Iy
CncQpBuN8+RI6/iuyMbUeE6p6u555u2VNZ/i7s7WH7T9
-----END CERTIFICATE-----
