Certificate:
    Data:
        Version: 3 (0x2)
        Serial Number:
            38:1f:c7:21:22:f0:d6:8b:1f:1f:05:20:e5:5e:a2:df
    Signature Algorithm: sha256WithRSAEncryption
        Issuer: CN=Custom RootCA
        Validity
            Not Before: Sep 26 14:41:26 2023 GMT
            Not After : Sep 18 14:41:26 2053 GMT
        Subject: CN=Custom RootCA SubCA
        Subject Public Key Info:
            Public Key Algorithm: rsaEncryption
                RSA Public-Key: (2048 bit)
                Modulus:
                    00:c6:8d:82:69:f6:da:c3:f4:ec:b5:94:f6:d2:5f:
                    82:05:e5:88:3e:b5:f2:86:a0:97:51:11:66:30:ca:
                    9d:c3:c7:2b:60:15:59:68:19:20:ff:ee:97:2c:ad:
                    3a:e7:ff:e1:65:07:a5:92:ad:d2:13:ea:81:e5:2d:
                    9c:0d:4c:18:d9:80:88:49:99:d1:18:18:40:38:74:
                    ad:90:6e:cf:c1:3e:b9:e4:14:20:a7:b6:25:d6:ec:
                    fd:48:8f:33:be:a5:1b:0b:64:ce:9a:8d:11:41:dd:
                    37:f4:65:3c:5e:69:c5:a4:ad:6c:d0:94:b9:5a:95:
                    29:8f:ee:78:2b:59:3d:47:11:d9:08:e5:f2:44:a4:
                    00:57:3b:67:75:a4:91:c6:cf:b1:00:c5:94:6c:e9:
                    3c:87:4e:a0:54:a8:be:17:e9:96:a0:9a:cf:c9:10:
                    bb:fd:76:02:68:db:81:a6:bc:bd:75:f7:88:6b:20:
                    fb:47:7b:87:34:00:4d:c0:3d:ef:1f:5c:38:ff:f2:
                    2e:0b:6f:c7:cd:b4:d7:2e:50:79:f3:2e:45:32:1d:
                    25:04:49:93:f8:f4:7c:6b:a1:67:c0:02:28:6e:a5:
                    cd:78:f5:22:c5:7e:a2:be:c5:f8:af:33:7c:2f:0a:
                    30:f7:de:e0:b8:c7:36:02:cc:d4:12:17:75:d0:53:
                    a9:43
                Exponent: 65537 (0x10001)
        X509v3 extensions:
            X509v3 Authority Key Identifier: 
                keyid:3C:5F:31:59:5E:F7:24:1F:F3:5D:76:65:E2:29:BA:70:DF:F1:DD:42

            X509v3 Basic Constraints: critical
                CA:TRUE, pathlen:0
            X509v3 Extended Key Usage: 
                TLS Web Client Authentication, TLS Web Server Authentication
            X509v3 Key Usage: critical
                Certificate Sign, CRL Sign
            X509v3 Subject Key Identifier: 
                6D:A3:FE:25:AB:DA:15:0F:3C:B3:A3:DA:2A:FB:D7:82:92:96:E7:19
    Signature Algorithm: sha256WithRSAEncryption
         0d:25:2d:9f:45:5e:73:41:c2:7a:49:15:e2:ef:57:ce:e9:44:
         dc:dd:e9:07:87:79:87:7d:63:58:fb:47:af:ae:42:04:94:ec:
         de:46:74:96:8e:a8:b8:c7:e9:9d:18:86:a2:fe:fd:06:89:5b:
         0b:ed:26:58:0a:21:4a:98:f9:ff:88:3c:8c:ea:80:bd:00:ac:
         ee:cd:0a:2c:bc:5e:f4:f5:71:12:bb:db:74:52:68:0c:15:66:
         f7:89:27:75:03:b4:03:35:8d:0c:f8:ad:a0:5d:9a:f7:64:af:
         ec:e3:9e:fd:e5:f4:42:5d:69:f8:12:0f:62:85:8b:ad:cc:20:
         64:53:e8:8c:04:f0:fd:5a:e9:be:97:93:d5:f4:9a:0f:7a:a6:
         37:8e:de:62:e2:0d:e1:a4:f1:c2:13:e0:ad:6b:7e:43:05:2a:
         ce:c2:a9:34:2b:20:5f:3c:03:61:e0:0d:8d:37:79:ec:55:55:
         2a:06:ca:e5:d2:6d:18:12:8d:29:da:42:5c:8f:fd:45:50:a2:
         a0:74:96:40:8d:3a:08:9e:ed:24:21:e9:2d:f5:5b:0b:02:08:
         ab:61:39:58:a2:c2:18:c9:1e:98:18:c0:56:aa:d3:54:f4:9f:
         5d:95:ec:81:67:28:30:7b:2d:af:81:34:ea:00:7b:fb:48:0d:
         87:9f:d2:a0
-----BEGIN CERTIFICATE-----
MIIDSTCCAjGgAwIBAgIQOB/HISLw1osfHwUg5V6i3zANBgkqhkiG9w0BAQsFADAY
MRYwFAYDVQQDDA1DdXN0b20gUm9vdENBMCAXDTIzMDkyNjE0NDEyNloYDzIwNTMw
OTE4MTQ0MTI2WjAeMRwwGgYDVQQDDBNDdXN0b20gUm9vdENBIFN1YkNBMIIBIjAN
BgkqhkiG9w0BAQEFAAOCAQ8AMIIBCgKCAQEAxo2Cafbaw/TstZT20l+CBeWIPrXy
hqCXURFmMMqdw8crYBVZaBkg/+6XLK065//hZQelkq3SE+qB5S2cDUwY2YCISZnR
GBhAOHStkG7PwT655BQgp7Yl1uz9SI8zvqUbC2TOmo0RQd039GU8XmnFpK1s0JS5
WpUpj+54K1k9RxHZCOXyRKQAVztndaSRxs+xAMWUbOk8h06gVKi+F+mWoJrPyRC7
/XYCaNuBpry9dfeIayD7R3uHNABNwD3vH1w4//IuC2/HzbTXLlB58y5FMh0lBEmT
+PR8a6FnwAIobqXNePUixX6ivsX4rzN8Lwow997guMc2AszUEhd10FOpQwIDAQAB
o4GGMIGDMB8GA1UdIwQYMBaAFDxfMVle9yQf8112ZeIpunDf8d1CMBIGA1UdEwEB
/wQIMAYBAf8CAQAwHQYDVR0lBBYwFAYIKwYBBQUHAwIGCCsGAQUFBwMBMA4GA1Ud
DwEB/wQEAwIBBjAdBgNVHQ4EFgQUbaP+JavaFQ88s6PaKvvXgpKW5xkwDQYJKoZI
hvcNAQELBQADggEBAA0lLZ9FXnNBwnpJFeLvV87pRNzd6QeHeYd9Y1j7R6+uQgSU
7N5GdJaOqLjH6Z0YhqL+/QaJWwvtJlgKIUqY+f+IPIzqgL0ArO7NCiy8XvT1cRK7
23RSaAwVZveJJ3UDtAM1jQz4raBdmvdkr+zjnv3l9EJdafgSD2KFi63MIGRT6IwE
8P1a6b6Xk9X0mg96pjeO3mLiDeGk8cIT4K1rfkMFKs7CqTQrIF88A2HgDY03eexV
VSoGyuXSbRgSjSnaQlyP/UVQoqB0lkCNOgie7SQh6S31WwsCCKthOViiwhjJHpgY
wFaq01T0n12V7IFnKDB7La+BNOoAe/tIDYef0qA=
-----END CERTIFICATE-----
