Certificate:
    Data:
        Version: 3 (0x2)
        Serial Number:
            5a:a8:07:42:30:4c:00:e5:58:83:5d:95:e0:05:bc:3e
    Signature Algorithm: sha256WithRSAEncryption
        Issuer: CN=Custom RootCA
        Validity
            Not Before: Sep 26 22:30:25 2023 GMT
            Not After : Sep 18 22:30:25 2053 GMT
        Subject: CN=Custom RootCA
        Subject Public Key Info:
            Public Key Algorithm: rsaEncryption
                RSA Public-Key: (2048 bit)
                Modulus:
                    00:bd:07:9b:87:af:d1:01:f0:96:1a:57:cf:63:97:
                    13:a8:3e:d3:aa:89:e6:1e:ee:31:1e:a6:f6:72:ed:
                    83:da:d5:63:dd:57:c0:9d:94:e0:4f:5d:62:6c:7f:
                    de:8a:b0:23:ca:75:fe:e2:8b:ec:27:2b:67:11:0d:
                    fd:70:b9:dc:0a:57:bc:42:78:a5:b4:cc:b1:93:22:
                    d1:fb:3d:b8:c8:72:8e:26:33:ea:b1:81:e0:ba:ea:
                    2f:0a:e0:90:b4:7d:61:e8:97:d1:79:13:b1:71:d1:
                    d1:01:25:9b:40:ce:2f:7f:74:b0:34:d9:07:d4:34:
                    65:5b:af:76:7b:24:48:85:30:b2:2a:62:e0:b4:7c:
                    e6:31:be:9b:dc:51:34:d7:eb:f5:b6:d7:d9:db:21:
                    6b:75:ea:6c:3f:e6:a2:00:51:b4:de:04:e6:09:5c:
                    fe:b2:d0:fc:5a:76:ab:9f:68:6a:d1:f6:88:e7:67:
                    f8:56:d3:17:eb:e4:eb:47:d3:36:ef:8a:10:15:45:
                    52:c5:85:df:5a:8b:8e:06:7b:8d:37:e8:1e:b8:76:
                    82:6c:08:cc:87:51:36:d4:1f:c2:e3:27:01:94:aa:
                    83:6f:6b:8b:1f:cb:a3:0e:2a:a9:c1:ca:d6:21:e7:
                    4b:40:d9:82:f4:03:ed:14:91:ca:a7:bf:d0:1b:3d:
                    7e:db
                Exponent: 65537 (0x10001)
        X509v3 extensions:
            X509v3 Basic Constraints: critical
                CA:TRUE
            X509v3 Key Usage: critical
                Certificate Sign, CRL Sign
            X509v3 Subject Key Identifier: 
                85:1F:84:64:46:85:69:34:22:20:14:BD:0D:D7:1D:62:DF:B0:86:24
    Signature Algorithm: sha256WithRSAEncryption
         3f:2b:f8:c4:81:04:ea:99:16:15:7d:3d:bf:c0:6a:18:59:9a:
         d5:20:1c:25:fd:e8:17:2b:c2:a8:b6:4f:01:b1:19:d3:18:aa:
         97:37:bb:64:b5:6e:41:d9:46:ca:49:78:94:6d:a4:f9:53:ce:
         61:df:db:0d:6b:11:ee:5a:17:41:a0:bd:23:8c:a1:a7:97:74:
         2c:ef:48:37:ae:38:0d:98:f0:55:51:20:21:e8:62:a8:d4:ce:
         25:e7:16:d8:ce:7d:a1:78:08:6a:d9:17:c3:b8:25:fe:29:99:
         a7:70:5c:2b:88:d2:eb:2a:a5:24:47:6a:89:aa:53:9b:da:b1:
         58:b1:31:00:67:05:75:69:ef:2a:f4:8f:78:d7:00:c3:bd:89:
         1b:d1:81:10:72:93:b5:7e:91:c5:20:f8:21:66:2d:ab:f4:55:
         8b:fd:fc:9e:f3:fc:2e:fc:47:70:ae:f2:5e:52:26:27:47:d8:
         4e:f0:ff:1d:1e:fe:25:b6:de:e5:f4:5a:91:b8:96:97:a2:e1:
         b1:e9:c5:53:2b:65:5d:d3:95:15:6b:15:44:f8:21:af:cd:90:
         5f:b1:9b:f6:b6:c5:00:ba:a9:ab:6d:04:b8:fa:c1:db:61:19:
         11:ff:a4:51:17:9a:1c:73:78:49:01:da:23:67:47:e5:80:fe:
         8c:d4:d7:26
-----BEGIN CERTIFICATE-----
MIIC/jCCAeagAwIBAgIQWqgHQjBMAOVYg12V4AW8PjANBgkqhkiG9w0BAQsFADAY
MRYwFAYDVQQDDA1DdXN0b20gUm9vdENBMCAXDTIzMDkyNjIyMzAyNVoYDzIwNTMw
OTE4MjIzMDI1WjAYMRYwFAYDVQQDDA1DdXN0b20gUm9vdENBMIIBIjANBgkqhkiG
9w0BAQEFAAOCAQ8AMIIBCgKCAQEAvQebh6/RAfCWGlfPY5cTqD7TqonmHu4xHqb2
cu2D2tVj3VfAnZTgT11ibH/eirAjynX+4ovsJytnEQ39cLncCle8QniltMyxkyLR
+z24yHKOJjPqsYHguuovCuCQtH1h6JfReROxcdHRASWbQM4vf3SwNNkH1DRlW692
eyRIhTCyKmLgtHzmMb6b3FE01+v1ttfZ2yFrdepsP+aiAFG03gTmCVz+stD8Wnar
n2hq0faI52f4VtMX6+TrR9M274oQFUVSxYXfWouOBnuNN+geuHaCbAjMh1E21B/C
4ycBlKqDb2uLH8ujDiqpwcrWIedLQNmC9APtFJHKp7/QGz1+2wIDAQABo0IwQDAP
BgNVHRMBAf8EBTADAQH/MA4GA1UdDwEB/wQEAwIBBjAdBgNVHQ4EFgQUhR+EZEaF
aTQiIBS9DdcdYt+whiQwDQYJKoZIhvcNAQELBQADggEBAD8r+MSBBOqZFhV9Pb/A
ahhZmtUgHCX96Bcrwqi2TwGxGdMYqpc3u2S1bkHZRspJeJRtpPlTzmHf2w1rEe5a
F0GgvSOMoaeXdCzvSDeuOA2Y8FVRICHoYqjUziXnFtjOfaF4CGrZF8O4Jf4pmadw
XCuI0usqpSRHaomqU5vasVixMQBnBXVp7yr0j3jXAMO9iRvRgRByk7V+kcUg+CFm
Lav0VYv9/J7z/C78R3Cu8l5SJidH2E7w/x0e/iW23uX0WpG4lpei4bHpxVMrZV3T
lRVrFUT4Ia/NkF+xm/a2xQC6qattBLj6wdthGRH/pFEXmhxzeEkB2iNnR+WA/ozU
1yY=
-----END CERTIFICATE-----
