Certificate:
    Data:
        Version: 3 (0x2)
        Serial Number:
            6d:54:41:c3:01:cf:76:3a:cc:33:d8:de:c7:b9:6a:9e
    Signature Algorithm: sha256WithRSAEncryption
        Issuer: CN=Custom RootCA
        Validity
            Not Before: Sep 10 23:15:54 2023 GMT
            Not After : Sep  7 23:15:54 2033 GMT
        Subject: CN=Custom RootCA SubCA
        Subject Public Key Info:
            Public Key Algorithm: rsaEncryption
                RSA Public-Key: (2048 bit)
                Modulus:
                    00:a5:70:d2:35:db:35:59:8e:4c:0e:3f:e6:97:c1:
                    b5:82:db:db:54:cc:5a:55:00:86:0b:d0:1a:90:b2:
                    a3:20:89:5e:48:42:c9:9c:62:7f:31:d4:65:d4:06:
                    ee:13:d7:2d:5a:30:cf:a4:46:86:23:98:d9:43:72:
                    56:ff:d6:03:a1:78:61:67:25:bb:43:34:2b:75:6d:
                    8e:d2:79:82:20:51:5f:db:26:d6:60:72:b4:0d:af:
                    bb:73:57:54:9d:4a:0a:4a:3f:ea:d8:f5:fe:82:d2:
                    9d:3c:8e:d7:86:75:12:6c:eb:e5:bd:91:3b:34:d8:
                    d1:4a:49:c6:9f:c8:f7:67:d7:ea:19:19:e9:6a:46:
                    0a:72:a0:64:2b:35:4c:a5:d9:0e:f1:d5:e0:db:76:
                    ba:7a:77:ca:c0:ac:1a:05:b9:ad:47:16:b3:08:6c:
                    a5:6d:a1:91:63:8d:64:24:bc:5d:b3:6d:40:f8:c7:
                    38:f5:0a:f0:7d:cf:7b:2d:10:85:3a:60:7b:bf:d1:
                    1c:8a:ad:9b:7d:f1:2d:b2:50:fb:82:56:f9:b8:c3:
                    29:cd:50:17:41:c7:6b:47:5c:b8:3f:74:56:2f:82:
                    41:ea:f9:b9:08:51:bc:5a:d4:a0:a1:4a:89:c6:2e:
                    b8:37:29:c6:9f:1a:58:4f:5d:6b:0f:86:ad:4b:11:
                    4b:e7
                Exponent: 65537 (0x10001)
        X509v3 extensions:
            X509v3 Authority Key Identifier: 
                keyid:1A:42:C1:A7:8E:B1:0D:6E:07:6D:91:1C:3F:62:1F:87:05:07:99:29

            X509v3 Basic Constraints: critical
                CA:TRUE, pathlen:0
            X509v3 Extended Key Usage: 
                TLS Web Client Authentication, TLS Web Server Authentication
            X509v3 Key Usage: critical
                Certificate Sign, CRL Sign
            X509v3 Subject Key Identifier: 
                47:03:4A:F9:CD:DC:C6:45:7B:26:09:1E:C6:27:8B:E7:7F:7C:5C:93
    Signature Algorithm: sha256WithRSAEncryption
         ae:8a:38:5e:e6:c6:e6:96:e3:d8:63:83:ba:a6:fb:a8:bc:7e:
         20:ec:f9:0b:e6:58:7c:47:96:cf:66:00:1e:7a:ec:33:80:98:
         c9:e5:34:9f:0a:e0:ff:d1:72:24:55:16:1e:df:f5:7d:55:ee:
         98:77:67:43:ad:44:01:58:2b:f9:ed:5a:cc:2b:10:18:ff:da:
         07:1b:f5:b2:f7:a7:cc:8b:82:9d:3a:03:58:8e:c2:6c:6a:27:
         60:8b:1d:e2:fe:7a:ef:5e:61:8a:67:64:da:5c:71:de:48:83:
         a6:7e:68:47:09:72:68:4c:d4:17:e1:ba:44:a0:6f:1b:d0:a6:
         c8:bb:51:e6:bf:1f:84:0e:bb:d6:fe:d5:31:3b:c6:26:39:74:
         0f:19:0d:02:b7:c2:7d:a2:32:44:c4:d3:0a:3d:e6:7c:d9:be:
         0b:db:62:31:25:90:e6:3d:c4:c1:5f:41:93:8a:10:70:94:ad:
         a4:9c:29:5f:9c:88:8e:73:db:f0:bd:c3:3a:cb:2a:c4:68:b8:
         35:76:14:b2:44:12:ae:ad:de:9d:3c:fc:e2:41:46:19:6d:c8:
         25:ab:e9:a9:be:64:28:e4:6b:4f:0e:fa:0b:9c:54:c6:b3:85:
         e8:1f:72:bc:f1:9a:76:3a:d4:35:49:a1:6e:ac:79:2b:80:94:
         63:90:29:c4
-----BEGIN CERTIFICATE-----
MIIDRzCCAi+gAwIBAgIQbVRBwwHPdjrMM9jex7lqnjANBgkqhkiG9w0BAQsFADAY
MRYwFAYDVQQDDA1DdXN0b20gUm9vdENBMB4XDTIzMDkxMDIzMTU1NFoXDTMzMDkw
NzIzMTU1NFowHjEcMBoGA1UEAwwTQ3VzdG9tIFJvb3RDQSBTdWJDQTCCASIwDQYJ
KoZIhvcNAQEBBQADggEPADCCAQoCggEBAKVw0jXbNVmOTA4/5pfBtYLb21TMWlUA
hgvQGpCyoyCJXkhCyZxifzHUZdQG7hPXLVowz6RGhiOY2UNyVv/WA6F4YWclu0M0
K3VtjtJ5giBRX9sm1mBytA2vu3NXVJ1KCko/6tj1/oLSnTyO14Z1Emzr5b2ROzTY
0UpJxp/I92fX6hkZ6WpGCnKgZCs1TKXZDvHV4Nt2unp3ysCsGgW5rUcWswhspW2h
kWONZCS8XbNtQPjHOPUK8H3Pey0QhTpge7/RHIqtm33xLbJQ+4JW+bjDKc1QF0HH
a0dcuD90Vi+CQer5uQhRvFrUoKFKicYuuDcpxp8aWE9daw+GrUsRS+cCAwEAAaOB
hjCBgzAfBgNVHSMEGDAWgBQaQsGnjrENbgdtkRw/Yh+HBQeZKTASBgNVHRMBAf8E
CDAGAQH/AgEAMB0GA1UdJQQWMBQGCCsGAQUFBwMCBggrBgEFBQcDATAOBgNVHQ8B
Af8EBAMCAQYwHQYDVR0OBBYEFEcDSvnN3MZFeyYJHsYni+d/fFyTMA0GCSqGSIb3
DQEBCwUAA4IBAQCuijhe5sbmluPYY4O6pvuovH4g7PkL5lh8R5bPZgAeeuwzgJjJ
5TSfCuD/0XIkVRYe3/V9Ve6Yd2dDrUQBWCv57VrMKxAY/9oHG/Wy96fMi4KdOgNY
jsJsaidgix3i/nrvXmGKZ2TaXHHeSIOmfmhHCXJoTNQX4bpEoG8b0KbIu1Hmvx+E
DrvW/tUxO8YmOXQPGQ0Ct8J9ojJExNMKPeZ82b4L22IxJZDmPcTBX0GTihBwlK2k
nClfnIiOc9vwvcM6yyrEaLg1dhSyRBKurd6dPPziQUYZbcglq+mpvmQo5GtPDvoL
nFTGs4XoH3K88Zp2OtQ1SaFurHkrgJRjkCnE
-----END CERTIFICATE-----
