Certificate:
    Data:
        Version: 3 (0x2)
        Serial Number:
            6d:54:41:c3:01:cf:76:3a:cc:33:d8:de:c7:b9:6a:9d
    Signature Algorithm: sha256WithRSAEncryption
        Issuer: CN=Custom RootCA
        Validity
            Not Before: Sep 10 23:15:54 2023 GMT
            Not After : Sep  7 23:15:54 2033 GMT
        Subject: CN=Custom RootCA
        Subject Public Key Info:
            Public Key Algorithm: rsaEncryption
                RSA Public-Key: (2048 bit)
                Modulus:
                    00:e5:a8:15:f6:47:00:14:6d:85:5d:65:e9:74:ed:
                    68:6a:19:81:38:3e:ff:09:1b:ef:af:17:7b:72:1a:
                    22:5d:f0:c8:a8:4c:89:6d:d0:24:cb:60:77:62:1c:
                    78:3d:fb:b4:56:f2:f6:8e:24:ff:be:3c:60:e4:bd:
                    bc:f5:cb:ad:bd:f4:76:40:8a:91:95:00:e2:47:7e:
                    f8:33:c5:f5:73:1a:95:27:a3:78:ec:39:61:bb:e7:
                    1c:1c:74:c6:b4:6d:36:6e:6a:59:d1:43:54:48:72:
                    11:ac:ac:3d:6a:f7:c7:e0:93:3d:ed:33:d0:28:dc:
                    07:24:2c:51:d0:a0:d3:bb:4e:91:d5:fa:e8:c4:c3:
                    cc:d0:ca:5e:db:21:f6:8c:ed:40:ea:e9:b6:fb:e5:
                    0d:5a:14:64:9f:53:5d:e7:af:2e:b3:d6:cf:78:dd:
                    09:16:a2:34:f6:f2:8a:35:3c:d7:55:cd:dd:10:f4:
                    40:e2:74:fb:6f:d2:53:fd:d2:b3:4a:6f:03:47:b1:
                    8a:ff:2e:0d:86:51:10:7c:d5:2b:a9:c8:fe:9d:74:
                    73:e2:1a:b1:ea:57:c1:3c:16:8e:51:83:29:d4:7e:
                    1e:03:bc:59:41:b0:ca:ce:3a:bb:9b:b7:a4:d2:be:
                    14:1b:7c:bc:21:cb:01:f9:6e:44:5d:f4:69:b9:9f:
                    3f:65
                Exponent: 65537 (0x10001)
        X509v3 extensions:
            X509v3 Basic Constraints: critical
                CA:TRUE
            X509v3 Key Usage: critical
                Certificate Sign, CRL Sign
            X509v3 Subject Key Identifier: 
                1A:42:C1:A7:8E:B1:0D:6E:07:6D:91:1C:3F:62:1F:87:05:07:99:29
    Signature Algorithm: sha256WithRSAEncryption
         93:32:3d:5b:83:e0:bd:0a:c3:cc:ee:6b:6d:dc:f1:da:cf:f5:
         39:42:b4:97:0d:96:23:f5:15:41:57:0a:ce:ea:72:a7:6b:c3:
         09:d1:d1:41:3d:06:a5:ac:7e:1c:3c:6a:75:fb:4d:33:26:d9:
         d9:c5:26:f2:a0:27:23:1f:71:1c:fa:a6:d3:7a:98:65:bf:63:
         cb:d9:c1:40:04:3a:b9:30:c3:75:40:53:07:fd:bc:61:da:29:
         4b:ba:e7:cd:af:bf:27:4c:83:b2:44:a9:7d:6d:ec:a9:b3:dc:
         18:9d:79:03:c7:1d:9d:c3:9e:7e:ea:ce:67:db:a1:46:1a:f3:
         b0:91:97:ce:df:ad:2f:07:eb:a3:24:b7:f2:ea:36:63:7f:86:
         d2:8e:c2:fd:71:26:a8:64:13:56:bc:d3:7b:0a:0f:4f:22:30:
         90:29:42:95:36:0b:bf:ac:2f:4e:66:b5:d8:b4:55:33:2e:6b:
         94:7c:1b:5e:8d:4e:f8:6e:ab:dd:72:4e:a2:45:c2:53:bd:2a:
         01:d8:17:04:e9:33:89:07:9e:c6:a1:65:a6:af:64:fd:3a:a7:
         70:e6:0a:5a:ee:12:b5:0c:2e:01:c8:ea:04:71:be:2c:ca:30:
         e0:3b:78:b8:98:75:a8:4b:1b:06:83:78:45:03:42:cf:c7:48:
         1d:c1:f5:2c
-----BEGIN CERTIFICATE-----
MIIC/DCCAeSgAwIBAgIQbVRBwwHPdjrMM9jex7lqnTANBgkqhkiG9w0BAQsFADAY
MRYwFAYDVQQDDA1DdXN0b20gUm9vdENBMB4XDTIzMDkxMDIzMTU1NFoXDTMzMDkw
NzIzMTU1NFowGDEWMBQGA1UEAwwNQ3VzdG9tIFJvb3RDQTCCASIwDQYJKoZIhvcN
AQEBBQADggEPADCCAQoCggEBAOWoFfZHABRthV1l6XTtaGoZgTg+/wkb768Xe3Ia
Il3wyKhMiW3QJMtgd2IceD37tFby9o4k/748YOS9vPXLrb30dkCKkZUA4kd++DPF
9XMalSejeOw5YbvnHBx0xrRtNm5qWdFDVEhyEaysPWr3x+CTPe0z0CjcByQsUdCg
07tOkdX66MTDzNDKXtsh9oztQOrptvvlDVoUZJ9TXeevLrPWz3jdCRaiNPbyijU8
11XN3RD0QOJ0+2/SU/3Ss0pvA0exiv8uDYZREHzVK6nI/p10c+IasepXwTwWjlGD
KdR+HgO8WUGwys46u5u3pNK+FBt8vCHLAfluRF30abmfP2UCAwEAAaNCMEAwDwYD
VR0TAQH/BAUwAwEB/zAOBgNVHQ8BAf8EBAMCAQYwHQYDVR0OBBYEFBpCwaeOsQ1u
B22RHD9iH4cFB5kpMA0GCSqGSIb3DQEBCwUAA4IBAQCTMj1bg+C9CsPM7mtt3PHa
z/U5QrSXDZYj9RVBVwrO6nKna8MJ0dFBPQalrH4cPGp1+00zJtnZxSbyoCcjH3Ec
+qbTephlv2PL2cFABDq5MMN1QFMH/bxh2ilLuufNr78nTIOyRKl9beyps9wYnXkD
xx2dw55+6s5n26FGGvOwkZfO360vB+ujJLfy6jZjf4bSjsL9cSaoZBNWvNN7Cg9P
IjCQKUKVNgu/rC9OZrXYtFUzLmuUfBtejU74bqvdck6iRcJTvSoB2BcE6TOJB57G
oWWmr2T9Oqdw5gpa7hK1DC4ByOoEcb4syjDgO3i4mHWoSxsGg3hFA0LPx0gdwfUs
-----END CERTIFICATE-----
